target datalayout = "e-m:e-p270:32:32-p271:32:32-p272:64:64-i64:64-i128:128-f80:128-n8:16:32:64-S128"
target triple = "x86_64-pc-linux-gnu"

%"class.clang::ento::SVal" = type <{ ptr, i8, [7 x i8] }>

; Function Attrs: mustprogress nounwind uwtable
define internal void @_ZNK12_GLOBAL__N_118PthreadLockChecker14TryFuchsiaLockERKN5clang4ento9CallEventERNS2_14CheckerContextENS0_11CheckerKindE(ptr noundef nonnull align 8 dereferenceable(280) %0, ptr noundef nonnull align 8 dereferenceable(72) %1, ptr noundef nonnull align 8 dereferenceable(81) %2, i32 noundef %3) #0 align 2 {
  %5 = alloca ptr, align 8
  %6 = alloca ptr, align 8
  %7 = alloca ptr, align 8
  %8 = alloca i32, align 4
  %9 = alloca %"class.clang::ento::SVal", align 8
  %10 = alloca { ptr, i8 }, align 8
  store ptr %0, ptr %5, align 8
  store ptr %1, ptr %6, align 8
  store ptr %2, ptr %7, align 8
  store i32 %3, ptr %8, align 4
  %11 = load ptr, ptr %5, align 8
  %12 = load ptr, ptr %6, align 8
  %13 = load ptr, ptr %7, align 8
  %14 = load ptr, ptr %6, align 8
  %15 = load ptr, ptr %14, align 8
  %16 = getelementptr inbounds ptr, ptr %15, i64 12
  %17 = load ptr, ptr %16, align 8
  %18 = call noundef ptr %17(ptr noundef nonnull align 8 dereferenceable(72) %14, i32 noundef 0)
  %19 = load ptr, ptr %6, align 8
  %20 = load ptr, ptr %19, align 8
  %21 = getelementptr inbounds ptr, ptr %20, i64 11
  %22 = load ptr, ptr %21, align 8
  %23 = call { ptr, i8 } %22(ptr noundef nonnull align 8 dereferenceable(72) %19, i32 noundef 0)
  store { ptr, i8 } %23, ptr %10, align 8
  call void @llvm.memcpy.p0.p0.i64(ptr align 8 %9, ptr align 8 %10, i64 9, i1 false)
  %24 = load i32, ptr %8, align 4
  %25 = getelementptr inbounds nuw { ptr, i8 }, ptr %9, i32 0, i32 0
  %26 = load ptr, ptr %25, align 8
  %27 = getelementptr inbounds nuw { ptr, i8 }, ptr %9, i32 0, i32 1
  %28 = load i8, ptr %27, align 8
  call void @_ZNK12_GLOBAL__N_118PthreadLockChecker14AcquireLockAuxERKN5clang4ento9CallEventERNS2_14CheckerContextEPKNS1_4ExprENS2_4SValEbNS0_16LockingSemanticsENS0_11CheckerKindE(ptr noundef nonnull align 8 dereferenceable(280) %11, ptr noundef nonnull align 8 dereferenceable(72) %12, ptr noundef nonnull align 8 dereferenceable(81) %13, ptr noundef %18, ptr %26, i8 %28, i1 noundef zeroext true, i32 noundef 1, i32 noundef %24)
  ret void
}