; Function Attrs: mustprogress nounwind uwtable
define internal void @_ZNK12_GLOBAL__N_118PthreadLockChecker14TryFuchsiaLockERKN5clang4ento9CallEventERNS2_14CheckerContextENS0_11CheckerKindE(ptr nocapture noundef nonnull align 8 dereferenceable(280) %0, ptr noundef nonnull align 8 dereferenceable(72) %1, ptr noundef nonnull align 8 dereferenceable(81) %2, i32 noundef %3) #0 align 2 {
  %5 = load ptr, ptr %1, align 8
  %6 = getelementptr inbounds i8, ptr %5, i64 96
  %7 = load ptr, ptr %6, align 8
  %8 = tail call noundef ptr %7(ptr noundef nonnull align 8 dereferenceable(72) %1, i32 noundef 0) #21
  %9 = load ptr, ptr %1, align 8
  %10 = getelementptr inbounds i8, ptr %9, i64 88
  %11 = load ptr, ptr %10, align 8
  %12 = tail call { ptr, i8 } %11(ptr noundef nonnull align 8 dereferenceable(72) %1, i32 noundef 0) #21
  %.fca.0.extract = extractvalue { ptr, i8 } %12, 0
  %.fca.1.extract = extractvalue { ptr, i8 } %12, 1
  tail call fastcc void @_ZNK12_GLOBAL__N_118PthreadLockChecker14AcquireLockAuxERKN5clang4ento9CallEventERNS2_14CheckerContextEPKNS1_4ExprENS2_4SValEbNS0_16LockingSemanticsENS0_11CheckerKindE(ptr noundef nonnull align 8 dereferenceable(280) %0, ptr noundef nonnull align 8 dereferenceable(72) %1, ptr noundef nonnull align 8 dereferenceable(81) %2, ptr noundef %8, ptr %.fca.0.extract, i8 %.fca.1.extract, i1 noundef zeroext true, i32 noundef 1, i32 noundef %3)
  ret void
}